; ModuleID = '32/2166.c'
source_filename = "32/2166.c"
target datalayout = "e-m:e-p270:32:32-p271:32:32-p272:64:64-i64:64-f80:128-n8:16:32:64-S128"
target triple = "x86_64-pc-linux-gnu"

@.str = private unnamed_addr constant [3 x i8] c"%d\00", align 1
@.str.1 = private unnamed_addr constant [3 x i8] c"%s\00", align 1
@.str.2 = private unnamed_addr constant [2 x i8] c"\0A\00", align 1

; Function Attrs: noinline nounwind uwtable
define dso_local void @main() #0 {
  %1 = alloca [101 x i32], align 16
  %2 = alloca [101 x i32], align 16
  %3 = alloca [101 x i32], align 16
  %4 = alloca i32, align 4
  %5 = alloca i32, align 4
  %6 = alloca i32, align 4
  %7 = alloca i32, align 4
  %8 = alloca i32, align 4
  %9 = alloca i32, align 4
  %10 = alloca [101 x i8], align 16
  %11 = alloca [101 x i8], align 16
  %12 = bitcast [101 x i32]* %3 to i8*
  call void @llvm.memset.p0i8.i64(i8* align 16 %12, i8 0, i64 404, i1 false)
  %13 = call i32 (i8*, ...) @__isoc99_scanf(i8* getelementptr inbounds ([3 x i8], [3 x i8]* @.str, i64 0, i64 0), i32* %4)
  store i32 1, i32* %5, align 4
  br label %14

14:                                               ; preds = %164, %0
  %15 = load i32, i32* %5, align 4
  %16 = load i32, i32* %4, align 4
  %17 = icmp sle i32 %15, %16
  br i1 %17, label %18, label %167

18:                                               ; preds = %14
  %19 = getelementptr inbounds [101 x i8], [101 x i8]* %10, i64 0, i64 0
  %20 = call i32 (i8*, ...) @__isoc99_scanf(i8* getelementptr inbounds ([3 x i8], [3 x i8]* @.str.1, i64 0, i64 0), i8* %19)
  %21 = getelementptr inbounds [101 x i8], [101 x i8]* %11, i64 0, i64 0
  %22 = call i32 (i8*, ...) @__isoc99_scanf(i8* getelementptr inbounds ([3 x i8], [3 x i8]* @.str.1, i64 0, i64 0), i8* %21)
  %23 = getelementptr inbounds [101 x i8], [101 x i8]* %10, i64 0, i64 0
  %24 = call i64 @strlen(i8* %23) #4
  %25 = trunc i64 %24 to i32
  store i32 %25, i32* %8, align 4
  %26 = getelementptr inbounds [101 x i8], [101 x i8]* %11, i64 0, i64 0
  %27 = call i64 @strlen(i8* %26) #4
  %28 = trunc i64 %27 to i32
  store i32 %28, i32* %9, align 4
  store i32 0, i32* %6, align 4
  br label %29

29:                                               ; preds = %39, %18
  %30 = load i32, i32* %6, align 4
  %31 = icmp slt i32 %30, 101
  br i1 %31, label %32, label %42

32:                                               ; preds = %29
  %33 = load i32, i32* %6, align 4
  %34 = sext i32 %33 to i64
  %35 = getelementptr inbounds [101 x i32], [101 x i32]* %1, i64 0, i64 %34
  store i32 0, i32* %35, align 4
  %36 = load i32, i32* %6, align 4
  %37 = sext i32 %36 to i64
  %38 = getelementptr inbounds [101 x i32], [101 x i32]* %2, i64 0, i64 %37
  store i32 0, i32* %38, align 4
  br label %39

39:                                               ; preds = %32
  %40 = load i32, i32* %6, align 4
  %41 = add nsw i32 %40, 1
  store i32 %41, i32* %6, align 4
  br label %29

42:                                               ; preds = %29
  %43 = load i32, i32* %8, align 4
  %44 = sub nsw i32 %43, 1
  store i32 %44, i32* %6, align 4
  store i32 0, i32* %7, align 4
  br label %45

45:                                               ; preds = %58, %42
  %46 = load i32, i32* %6, align 4
  %47 = icmp sge i32 %46, 0
  br i1 %47, label %48, label %63

48:                                               ; preds = %45
  %49 = load i32, i32* %6, align 4
  %50 = sext i32 %49 to i64
  %51 = getelementptr inbounds [101 x i8], [101 x i8]* %10, i64 0, i64 %50
  %52 = load i8, i8* %51, align 1
  %53 = sext i8 %52 to i32
  %54 = sub nsw i32 %53, 48
  %55 = load i32, i32* %7, align 4
  %56 = sext i32 %55 to i64
  %57 = getelementptr inbounds [101 x i32], [101 x i32]* %1, i64 0, i64 %56
  store i32 %54, i32* %57, align 4
  br label %58

58:                                               ; preds = %48
  %59 = load i32, i32* %6, align 4
  %60 = add nsw i32 %59, -1
  store i32 %60, i32* %6, align 4
  %61 = load i32, i32* %7, align 4
  %62 = add nsw i32 %61, 1
  store i32 %62, i32* %7, align 4
  br label %45

63:                                               ; preds = %45
  %64 = load i32, i32* %9, align 4
  %65 = sub nsw i32 %64, 1
  store i32 %65, i32* %6, align 4
  store i32 0, i32* %7, align 4
  br label %66

66:                                               ; preds = %79, %63
  %67 = load i32, i32* %6, align 4
  %68 = icmp sge i32 %67, 0
  br i1 %68, label %69, label %84

69:                                               ; preds = %66
  %70 = load i32, i32* %6, align 4
  %71 = sext i32 %70 to i64
  %72 = getelementptr inbounds [101 x i8], [101 x i8]* %11, i64 0, i64 %71
  %73 = load i8, i8* %72, align 1
  %74 = sext i8 %73 to i32
  %75 = sub nsw i32 %74, 48
  %76 = load i32, i32* %7, align 4
  %77 = sext i32 %76 to i64
  %78 = getelementptr inbounds [101 x i32], [101 x i32]* %2, i64 0, i64 %77
  store i32 %75, i32* %78, align 4
  br label %79

79:                                               ; preds = %69
  %80 = load i32, i32* %6, align 4
  %81 = add nsw i32 %80, -1
  store i32 %81, i32* %6, align 4
  %82 = load i32, i32* %7, align 4
  %83 = add nsw i32 %82, 1
  store i32 %83, i32* %7, align 4
  br label %66

84:                                               ; preds = %66
  store i32 0, i32* %6, align 4
  br label %85

85:                                               ; preds = %144, %84
  %86 = load i32, i32* %6, align 4
  %87 = load i32, i32* %8, align 4
  %88 = sub nsw i32 %87, 1
  %89 = icmp sle i32 %86, %88
  br i1 %89, label %90, label %147

90:                                               ; preds = %85
  %91 = load i32, i32* %6, align 4
  %92 = sext i32 %91 to i64
  %93 = getelementptr inbounds [101 x i32], [101 x i32]* %1, i64 0, i64 %92
  %94 = load i32, i32* %93, align 4
  %95 = load i32, i32* %6, align 4
  %96 = sext i32 %95 to i64
  %97 = getelementptr inbounds [101 x i32], [101 x i32]* %2, i64 0, i64 %96
  %98 = load i32, i32* %97, align 4
  %99 = icmp sge i32 %94, %98
  br i1 %99, label %100, label %113

100:                                              ; preds = %90
  %101 = load i32, i32* %6, align 4
  %102 = sext i32 %101 to i64
  %103 = getelementptr inbounds [101 x i32], [101 x i32]* %1, i64 0, i64 %102
  %104 = load i32, i32* %103, align 4
  %105 = load i32, i32* %6, align 4
  %106 = sext i32 %105 to i64
  %107 = getelementptr inbounds [101 x i32], [101 x i32]* %2, i64 0, i64 %106
  %108 = load i32, i32* %107, align 4
  %109 = sub nsw i32 %104, %108
  %110 = load i32, i32* %6, align 4
  %111 = sext i32 %110 to i64
  %112 = getelementptr inbounds [101 x i32], [101 x i32]* %3, i64 0, i64 %111
  store i32 %109, i32* %112, align 4
  br label %113

113:                                              ; preds = %100, %90
  %114 = load i32, i32* %6, align 4
  %115 = sext i32 %114 to i64
  %116 = getelementptr inbounds [101 x i32], [101 x i32]* %1, i64 0, i64 %115
  %117 = load i32, i32* %116, align 4
  %118 = load i32, i32* %6, align 4
  %119 = sext i32 %118 to i64
  %120 = getelementptr inbounds [101 x i32], [101 x i32]* %2, i64 0, i64 %119
  %121 = load i32, i32* %120, align 4
  %122 = icmp slt i32 %117, %121
  br i1 %122, label %123, label %143

123:                                              ; preds = %113
  %124 = load i32, i32* %6, align 4
  %125 = add nsw i32 %124, 1
  %126 = sext i32 %125 to i64
  %127 = getelementptr inbounds [101 x i32], [101 x i32]* %1, i64 0, i64 %126
  %128 = load i32, i32* %127, align 4
  %129 = sub nsw i32 %128, 1
  store i32 %129, i32* %127, align 4
  %130 = load i32, i32* %6, align 4
  %131 = sext i32 %130 to i64
  %132 = getelementptr inbounds [101 x i32], [101 x i32]* %1, i64 0, i64 %131
  %133 = load i32, i32* %132, align 4
  %134 = add nsw i32 %133, 10
  %135 = load i32, i32* %6, align 4
  %136 = sext i32 %135 to i64
  %137 = getelementptr inbounds [101 x i32], [101 x i32]* %2, i64 0, i64 %136
  %138 = load i32, i32* %137, align 4
  %139 = sub nsw i32 %134, %138
  %140 = load i32, i32* %6, align 4
  %141 = sext i32 %140 to i64
  %142 = getelementptr inbounds [101 x i32], [101 x i32]* %3, i64 0, i64 %141
  store i32 %139, i32* %142, align 4
  br label %143

143:                                              ; preds = %123, %113
  br label %144

144:                                              ; preds = %143
  %145 = load i32, i32* %6, align 4
  %146 = add nsw i32 %145, 1
  store i32 %146, i32* %6, align 4
  br label %85

147:                                              ; preds = %85
  %148 = load i32, i32* %8, align 4
  %149 = sub nsw i32 %148, 1
  store i32 %149, i32* %6, align 4
  br label %150

150:                                              ; preds = %159, %147
  %151 = load i32, i32* %6, align 4
  %152 = icmp sge i32 %151, 0
  br i1 %152, label %153, label %162

153:                                              ; preds = %150
  %154 = load i32, i32* %6, align 4
  %155 = sext i32 %154 to i64
  %156 = getelementptr inbounds [101 x i32], [101 x i32]* %3, i64 0, i64 %155
  %157 = load i32, i32* %156, align 4
  %158 = call i32 (i8*, ...) @printf(i8* getelementptr inbounds ([3 x i8], [3 x i8]* @.str, i64 0, i64 0), i32 %157)
  br label %159

159:                                              ; preds = %153
  %160 = load i32, i32* %6, align 4
  %161 = add nsw i32 %160, -1
  store i32 %161, i32* %6, align 4
  br label %150

162:                                              ; preds = %150
  %163 = call i32 (i8*, ...) @printf(i8* getelementptr inbounds ([2 x i8], [2 x i8]* @.str.2, i64 0, i64 0))
  br label %164

164:                                              ; preds = %162
  %165 = load i32, i32* %5, align 4
  %166 = add nsw i32 %165, 1
  store i32 %166, i32* %5, align 4
  br label %14

167:                                              ; preds = %14
  ret void
}

; Function Attrs: argmemonly nounwind willreturn
declare void @llvm.memset.p0i8.i64(i8* nocapture writeonly, i8, i64, i1 immarg) #1

declare dso_local i32 @__isoc99_scanf(i8*, ...) #2

; Function Attrs: nounwind readonly
declare dso_local i64 @strlen(i8*) #3

declare dso_local i32 @printf(i8*, ...) #2


!llvm.module.flags = !{!0}
!llvm.ident = !{!1}

!0 = !{i32 1, !"wchar_size", i32 4}
!1 = !{!"clang version 10.0.0-4ubuntu1 "}
